; Function Attrs: mustprogress uwtable
define void @_ZN7openvdb5v11_08GridBase13setVectorTypeENS0_7VecTypeE(ptr noundef nonnull align 8 dereferenceable(72) %this, i32 noundef %typ) local_unnamed_addr #5 align 2 personality ptr @__gxx_personality_v0 {
entry:
  %ref.tmp = alloca %"class.std::__cxx11::basic_string", align 8
  %ref.tmp2 = alloca %"class.std::allocator.0", align 1
  %ref.tmp3 = alloca %"class.openvdb::v11_0::TypedMetadata", align 8
  %ref.tmp4 = alloca %"class.std::__cxx11::basic_string", align 8
  call void @_ZNSaIcEC1Ev(ptr noundef nonnull align 1 dereferenceable(1) %ref.tmp2) #18
  %call.i4 = invoke noundef ptr @_ZNSt7__cxx1112basic_stringIcSt11char_traitsIcESaIcEE13_M_local_dataEv(ptr noundef nonnull align 8 dereferenceable(32) %ref.tmp)
          to label %call.i.noexc unwind label %lpad

call.i.noexc:                                     ; preds = %entry
  invoke void @_ZNSt7__cxx1112basic_stringIcSt11char_traitsIcESaIcEE12_Alloc_hiderC1EPcRKS3_(ptr noundef nonnull align 8 dereferenceable(8) %ref.tmp, ptr noundef %call.i4, ptr noundef nonnull align 1 dereferenceable(1) %ref.tmp2)
          to label %.noexc unwind label %lpad

.noexc:                                           ; preds = %call.i.noexc
  invoke void @_ZNSt7__cxx1112basic_stringIcSt11char_traitsIcESaIcEE12_M_constructIPKcEEvT_S8_St20forward_iterator_tag(ptr noundef nonnull align 8 dereferenceable(32) %ref.tmp, ptr noundef nonnull @.str.7, ptr noundef nonnull getelementptr inbounds ([12 x i8], ptr @.str.7, i64 0, i64 11))
          to label %invoke.cont unwind label %lpad.i

lpad.i:                                           ; preds = %.noexc
  %0 = landingpad { ptr, i32 }
          cleanup
  call void @_ZNSaIcED2Ev(ptr noundef nonnull align 1 dereferenceable(1) %ref.tmp) #18
  br label %ehcleanup12

invoke.cont:                                      ; preds = %.noexc
  call void @_ZNSt7__cxx1112basic_stringIcSt11char_traitsIcESaIcEEC1Ev(ptr noundef nonnull align 8 dereferenceable(32) %ref.tmp4) #18
  %1 = icmp ult i32 %typ, 5
  br i1 %1, label %switch.lookup, label %invoke.cont6

lpad.i5:                                          ; preds = %switch.lookup
  %2 = landingpad { ptr, i32 }
          cleanup
  br label %ehcleanup11

switch.lookup:                                    ; preds = %invoke.cont
  %3 = zext nneg i32 %typ to i64
  %switch.gep = getelementptr inbounds [5 x ptr], ptr @switch.table._ZN7openvdb5v11_08GridBase13setVectorTypeENS0_7VecTypeE, i64 0, i64 %3
  %switch.load = load ptr, ptr %switch.gep, align 8
  %4 = invoke noundef nonnull align 8 dereferenceable(32) ptr @_ZNSt7__cxx1112basic_stringIcSt11char_traitsIcESaIcEEaSEPKc(ptr noundef nonnull align 8 dereferenceable(32) %ref.tmp4, ptr noundef nonnull %switch.load)
          to label %invoke.cont6 unwind label %lpad.i5

invoke.cont6:                                     ; preds = %invoke.cont, %switch.lookup
  store ptr getelementptr inbounds ({ [12 x ptr] }, ptr @_ZTVN7openvdb5v11_013TypedMetadataINSt7__cxx1112basic_stringIcSt11char_traitsIcESaIcEEEEE, i64 0, i32 0, i64 2), ptr %ref.tmp3, align 8
  %mValue.i = getelementptr inbounds i8, ptr %ref.tmp3, i64 8
  invoke void @_ZNSt7__cxx1112basic_stringIcSt11char_traitsIcESaIcEEC1ERKS4_(ptr noundef nonnull align 8 dereferenceable(32) %mValue.i, ptr noundef nonnull align 8 dereferenceable(32) %ref.tmp4)
          to label %invoke.cont8 unwind label %lpad7

invoke.cont8:                                     ; preds = %invoke.cont6
  invoke void @_ZN7openvdb5v11_07MetaMap10insertMetaERKNSt7__cxx1112basic_stringIcSt11char_traitsIcESaIcEEERKNS0_8MetadataE(ptr noundef nonnull align 8 dereferenceable(56) %this, ptr noundef nonnull align 8 dereferenceable(32) %ref.tmp, ptr noundef nonnull align 8 dereferenceable(8) %ref.tmp3)
          to label %invoke.cont10 unwind label %lpad9

invoke.cont10:                                    ; preds = %invoke.cont8
  store ptr getelementptr inbounds ({ [12 x ptr] }, ptr @_ZTVN7openvdb5v11_013TypedMetadataINSt7__cxx1112basic_stringIcSt11char_traitsIcESaIcEEEEE, i64 0, i32 0, i64 2), ptr %ref.tmp3, align 8
  call void @_ZNSt7__cxx1112basic_stringIcSt11char_traitsIcESaIcEED1Ev(ptr noundef nonnull align 8 dereferenceable(32) %mValue.i) #18
  call void @_ZNSt7__cxx1112basic_stringIcSt11char_traitsIcESaIcEED1Ev(ptr noundef nonnull align 8 dereferenceable(32) %ref.tmp4) #18
  call void @_ZNSt7__cxx1112basic_stringIcSt11char_traitsIcESaIcEED1Ev(ptr noundef nonnull align 8 dereferenceable(32) %ref.tmp) #18
  call void @_ZNSaIcED1Ev(ptr noundef nonnull align 1 dereferenceable(1) %ref.tmp2) #18
  ret void

lpad:                                             ; preds = %call.i.noexc, %entry
  %5 = landingpad { ptr, i32 }
          cleanup
  br label %ehcleanup12

lpad7:                                            ; preds = %invoke.cont6
  %6 = landingpad { ptr, i32 }
          cleanup
  br label %ehcleanup11

lpad9:                                            ; preds = %invoke.cont8
  %7 = landingpad { ptr, i32 }
          cleanup
  store ptr getelementptr inbounds ({ [12 x ptr] }, ptr @_ZTVN7openvdb5v11_013TypedMetadataINSt7__cxx1112basic_stringIcSt11char_traitsIcESaIcEEEEE, i64 0, i32 0, i64 2), ptr %ref.tmp3, align 8
  call void @_ZNSt7__cxx1112basic_stringIcSt11char_traitsIcESaIcEED1Ev(ptr noundef nonnull align 8 dereferenceable(32) %mValue.i) #18
  br label %ehcleanup11

ehcleanup11:                                      ; preds = %lpad7, %lpad9, %lpad.i5
  %.pn.pn = phi { ptr, i32 } [ %2, %lpad.i5 ], [ %7, %lpad9 ], [ %6, %lpad7 ]
  call void @_ZNSt7__cxx1112basic_stringIcSt11char_traitsIcESaIcEED1Ev(ptr noundef nonnull align 8 dereferenceable(32) %ref.tmp4) #18
  call void @_ZNSt7__cxx1112basic_stringIcSt11char_traitsIcESaIcEED1Ev(ptr noundef nonnull align 8 dereferenceable(32) %ref.tmp) #18
  br label %ehcleanup12

ehcleanup12:                                      ; preds = %lpad, %lpad.i, %ehcleanup11
  %.pn.pn.pn = phi { ptr, i32 } [ %.pn.pn, %ehcleanup11 ], [ %5, %lpad ], [ %0, %lpad.i ]
  call void @_ZNSaIcED1Ev(ptr noundef nonnull align 1 dereferenceable(1) %ref.tmp2) #18
  resume { ptr, i32 } %.pn.pn.pn
}